target datalayout = "e-m:e-p270:32:32-p271:32:32-p272:64:64-i64:64-i128:128-f80:128-n8:16:32:64-S128"
target triple = "x86_64-pc-linux-gnu"

%class.anon.143 = type { i8 }

@_ZN12_GLOBAL__N_115networkAccessOKE = internal global i8 0, align 1

; Function Attrs: mustprogress uwtable
define internal void @_ZN12_GLOBAL__N_133networking_pyproj_issue_1192_Test8TestBodyEv(ptr noundef nonnull align 8 dereferenceable(16) %0) unnamed_addr #6 align 2 {
  %2 = alloca ptr, align 8
  %3 = alloca %class.anon.143, align 1
  %4 = alloca ptr, align 8
  store ptr %0, ptr %2, align 8, !tbaa !638
  %5 = load i8, ptr @_ZN12_GLOBAL__N_115networkAccessOKE, align 1, !tbaa !99, !range !101, !noundef !102
  %6 = trunc i8 %5 to i1
  br i1 %6, label %8, label %7

7:                                                ; preds = %1
  br label %19

8:                                                ; preds = %1
  call void @llvm.lifetime.start.p0(i64 1, ptr %3) #3
  call void @llvm.lifetime.start.p0(i64 8, ptr %4) #3
  %9 = call ptr @proj_context_create()
  store ptr %9, ptr %4, align 8, !tbaa !109
  %10 = load ptr, ptr %4, align 8, !tbaa !109
  call void @proj_grid_cache_set_enable(ptr noundef %10, i32 noundef 0)
  %11 = load ptr, ptr %4, align 8, !tbaa !109
  %12 = call i32 @proj_context_set_enable_network(ptr noundef %11, i32 noundef 1)
  %13 = load ptr, ptr %4, align 8, !tbaa !109
  call void @"_ZZN12_GLOBAL__N_133networking_pyproj_issue_1192_Test8TestBodyEvENK3$_0clEP6pj_ctx"(ptr noundef nonnull align 1 dereferenceable(1) %3, ptr noundef %13)
  %14 = load ptr, ptr %4, align 8, !tbaa !109
  %15 = call i32 @proj_context_set_enable_network(ptr noundef %14, i32 noundef 0)
  %16 = load ptr, ptr %4, align 8, !tbaa !109
  call void @"_ZZN12_GLOBAL__N_133networking_pyproj_issue_1192_Test8TestBodyEvENK3$_0clEP6pj_ctx"(ptr noundef nonnull align 1 dereferenceable(1) %3, ptr noundef %16)
  %17 = load ptr, ptr %4, align 8, !tbaa !109
  %18 = call ptr @proj_context_destroy(ptr noundef %17)
  call void @llvm.lifetime.end.p0(i64 8, ptr %4) #3
  call void @llvm.lifetime.end.p0(i64 1, ptr %3) #3
  br label %19

19:                                               ; preds = %8, %7
  ret void
}