; Function Attrs: mustprogress uwtable
define internal void @_ZN12_GLOBAL__N_133networking_pyproj_issue_1192_Test8TestBodyEv(ptr nonnull readnone align 8 captures(none) %0) unnamed_addr #4 align 2 {
  %2 = load i8, ptr @_ZN12_GLOBAL__N_115networkAccessOKE, align 1, !tbaa !28, !range !45, !noundef !46
  %3 = trunc nuw i8 %2 to i1
  br i1 %3, label %4, label %9

4:                                                ; preds = %1
  %5 = tail call ptr @proj_context_create()
  tail call void @proj_grid_cache_set_enable(ptr noundef %5, i32 noundef 0)
  %6 = tail call i32 @proj_context_set_enable_network(ptr noundef %5, i32 noundef 1)
  tail call fastcc void @"_ZZN12_GLOBAL__N_133networking_pyproj_issue_1192_Test8TestBodyEvENK3$_0clEP6pj_ctx"(ptr noundef %5)
  %7 = tail call i32 @proj_context_set_enable_network(ptr noundef %5, i32 noundef 0)
  tail call fastcc void @"_ZZN12_GLOBAL__N_133networking_pyproj_issue_1192_Test8TestBodyEvENK3$_0clEP6pj_ctx"(ptr noundef %5)
  %8 = tail call ptr @proj_context_destroy(ptr noundef %5)
  br label %9

9:                                                ; preds = %1, %4
  ret void
}